target datalayout = "e-m:e-p270:32:32-p271:32:32-p272:64:64-i64:64-i128:128-f80:128-n8:16:32:64-S128"
target triple = "x86_64-pc-linux-gnu"

%struct.b2Vec2 = type { float, float }
%struct.b2JointArray = type { ptr, i32, i32 }
%struct.b2JointSimArray = type { ptr, i32, i32 }
%struct.b2BodyId = type { i32, i16, i16 }
%struct.b2WeldJointDef = type { %struct.b2BodyId, %struct.b2BodyId, %struct.b2Vec2, %struct.b2Vec2, float, float, float, float, float, i8, ptr, i32 }
%struct.b2JointId = type { i32, i16, i16 }
%struct.b2World = type { %struct.b2ArenaAllocator, %struct.b2BroadPhase, %struct.b2ConstraintGraph, %struct.b2IdPool, %struct.b2BodyArray, %struct.b2IdPool, %struct.b2SolverSetArray, %struct.b2IdPool, %struct.b2JointArray, %struct.b2IdPool, %struct.b2ContactArray, %struct.b2IdPool, %struct.b2IslandArray, %struct.b2IdPool, %struct.b2IdPool, %struct.b2ShapeArray, %struct.b2ChainShapeArray, %struct.b2SensorArray, %struct.b2TaskContextArray, %struct.b2SensorTaskContextArray, %struct.b2BodyMoveEventArray, %struct.b2SensorBeginTouchEventArray, %struct.b2ContactBeginTouchEventArray, [2 x %struct.b2SensorEndTouchEventArray], [2 x %struct.b2ContactEndTouchEventArray], i32, %struct.b2ContactHitEventArray, %struct.b2BitSet, %struct.b2BitSet, %struct.b2BitSet, i64, i32, %struct.b2Vec2, float, float, float, float, float, float, float, float, ptr, ptr, i16, %struct.b2Profile, ptr, ptr, ptr, ptr, i32, ptr, ptr, ptr, ptr, ptr, float, i32, i32, i16, i8, i8, i8, i8, i8, i8 }
%struct.b2ArenaAllocator = type { ptr, i32, i32, i32, i32, %struct.b2ArenaEntryArray }
%struct.b2ArenaEntryArray = type { ptr, i32, i32 }
%struct.b2BroadPhase = type { [3 x %struct.b2DynamicTree], i32, %struct.b2HashSet, %struct.b2IntArray, ptr, ptr, i32, %struct.b2AtomicInt, %struct.b2HashSet }
%struct.b2DynamicTree = type { ptr, i32, i32, i32, i32, i32, ptr, ptr, ptr, ptr, i32 }
%struct.b2IntArray = type { ptr, i32, i32 }
%struct.b2AtomicInt = type { i32 }
%struct.b2HashSet = type { ptr, i32, i32 }
%struct.b2ConstraintGraph = type { [12 x %struct.b2GraphColor] }
%struct.b2GraphColor = type { %struct.b2BitSet, %struct.b2ContactSimArray, %struct.b2JointSimArray, %union.anon }
%struct.b2ContactSimArray = type { ptr, i32, i32 }
%union.anon = type { ptr }
%struct.b2BodyArray = type { ptr, i32, i32 }
%struct.b2SolverSetArray = type { ptr, i32, i32 }
%struct.b2ContactArray = type { ptr, i32, i32 }
%struct.b2IslandArray = type { ptr, i32, i32 }
%struct.b2IdPool = type { %struct.b2IntArray, i32 }
%struct.b2ShapeArray = type { ptr, i32, i32 }
%struct.b2ChainShapeArray = type { ptr, i32, i32 }
%struct.b2SensorArray = type { ptr, i32, i32 }
%struct.b2TaskContextArray = type { ptr, i32, i32 }
%struct.b2SensorTaskContextArray = type { ptr, i32, i32 }
%struct.b2BodyMoveEventArray = type { ptr, i32, i32 }
%struct.b2SensorBeginTouchEventArray = type { ptr, i32, i32 }
%struct.b2ContactBeginTouchEventArray = type { ptr, i32, i32 }
%struct.b2SensorEndTouchEventArray = type { ptr, i32, i32 }
%struct.b2ContactEndTouchEventArray = type { ptr, i32, i32 }
%struct.b2ContactHitEventArray = type { ptr, i32, i32 }
%struct.b2BitSet = type { ptr, i32, i32 }
%struct.b2Profile = type { float, float, float, float, float, float, float, float, float, float, float, float, float, float, float, float, float, float, float, float, float, float }
%struct.b2Joint = type { ptr, i32, i32, i32, [2 x %struct.b2JointEdge], i32, i32, i32, i32, float, i32, i16, i8, i8 }
%struct.b2JointEdge = type { i32, i32, i32 }
%struct.b2JointSim = type { i32, i32, i32, i32, %struct.b2Vec2, %struct.b2Vec2, float, float, float, float, %union.anon.0 }
%union.anon.0 = type { %struct.b2PrismaticJoint }
%struct.b2PrismaticJoint = type { %struct.b2Vec2, %struct.b2Vec2, float, float, float, float, float, float, float, float, float, float, float, i32, i32, %struct.b2Vec2, %struct.b2Vec2, %struct.b2Vec2, %struct.b2Vec2, float, float, %struct.b2Softness, i8, i8, i8 }
%struct.b2Softness = type { float, float, float }
%struct.b2WorldId = type { i16, i16 }
%struct.b2JointPair = type { ptr, ptr }
%struct.b2Body = type { [32 x i8], ptr, i32, i32, i32, i32, i32, i32, i32, i32, i32, i32, i32, i32, float, float, float, float, i32, i32, i32, i16, i8, i8, i8, i8 }
%struct.b2Contact = type { i32, i32, i32, [2 x %struct.b2ContactEdge], i32, i32, i32, i32, i32, i32, i32, i8 }
%struct.b2ContactEdge = type { i32, i32, i32 }
%struct.b2WeldJoint = type { float, float, float, float, float, %struct.b2Softness, %struct.b2Softness, %struct.b2Vec2, float, i32, i32, %struct.b2Vec2, %struct.b2Vec2, %struct.b2Vec2, float, float }

@b2Vec2_zero = internal constant %struct.b2Vec2 zeroinitializer, align 4

; Function Attrs: inlinehint nounwind uwtable
define internal ptr @b2ContactArray_Get(ptr noundef %0, i32 noundef %1) #5 {
  %3 = alloca ptr, align 8
  %4 = alloca i32, align 4
  store ptr %0, ptr %3, align 8, !tbaa !12
  store i32 %1, ptr %4, align 4, !tbaa !3
  %5 = load ptr, ptr %3, align 8, !tbaa !12
  %6 = getelementptr inbounds nuw %struct.b2ContactArray, ptr %5, i32 0, i32 0
  %7 = load ptr, ptr %6, align 8, !tbaa !305
  %8 = load i32, ptr %4, align 4, !tbaa !3
  %9 = sext i32 %8 to i64
  %10 = getelementptr inbounds %struct.b2Contact, ptr %7, i64 %9
  ret ptr %10
}

; Function Attrs: nounwind uwtable
define internal void @b2DestroyContactsBetweenBodies(ptr noundef %0, ptr noundef %1, ptr noundef %2) #0 {
  %4 = alloca ptr, align 8
  %5 = alloca ptr, align 8
  %6 = alloca ptr, align 8
  %7 = alloca i32, align 4
  %8 = alloca i32, align 4
  %9 = alloca i8, align 1
  %10 = alloca i32, align 4
  %11 = alloca i32, align 4
  %12 = alloca ptr, align 8
  %13 = alloca i32, align 4
  store ptr %0, ptr %4, align 8, !tbaa !60
  store ptr %1, ptr %5, align 8, !tbaa !125
  store ptr %2, ptr %6, align 8, !tbaa !125
  call void @llvm.lifetime.start.p0(i64 4, ptr %7) #9
  call void @llvm.lifetime.start.p0(i64 4, ptr %8) #9
  %14 = load ptr, ptr %5, align 8, !tbaa !125
  %15 = getelementptr inbounds nuw %struct.b2Body, ptr %14, i32 0, i32 5
  %16 = load i32, ptr %15, align 4, !tbaa !180
  %17 = load ptr, ptr %6, align 8, !tbaa !125
  %18 = getelementptr inbounds nuw %struct.b2Body, ptr %17, i32 0, i32 5
  %19 = load i32, ptr %18, align 4, !tbaa !180
  %20 = icmp slt i32 %16, %19
  br i1 %20, label %21, label %28

21:                                               ; preds = %3
  %22 = load ptr, ptr %5, align 8, !tbaa !125
  %23 = getelementptr inbounds nuw %struct.b2Body, ptr %22, i32 0, i32 4
  %24 = load i32, ptr %23, align 8, !tbaa !181
  store i32 %24, ptr %7, align 4, !tbaa !3
  %25 = load ptr, ptr %6, align 8, !tbaa !125
  %26 = getelementptr inbounds nuw %struct.b2Body, ptr %25, i32 0, i32 19
  %27 = load i32, ptr %26, align 4, !tbaa !147
  store i32 %27, ptr %8, align 4, !tbaa !3
  br label %35

28:                                               ; preds = %3
  %29 = load ptr, ptr %6, align 8, !tbaa !125
  %30 = getelementptr inbounds nuw %struct.b2Body, ptr %29, i32 0, i32 4
  %31 = load i32, ptr %30, align 8, !tbaa !181
  store i32 %31, ptr %7, align 4, !tbaa !3
  %32 = load ptr, ptr %5, align 8, !tbaa !125
  %33 = getelementptr inbounds nuw %struct.b2Body, ptr %32, i32 0, i32 19
  %34 = load i32, ptr %33, align 4, !tbaa !147
  store i32 %34, ptr %8, align 4, !tbaa !3
  br label %35

35:                                               ; preds = %28, %21
  call void @llvm.lifetime.start.p0(i64 1, ptr %9) #9
  store i8 0, ptr %9, align 1, !tbaa !133
  br label %36

36:                                               ; preds = %71, %35
  %37 = load i32, ptr %7, align 4, !tbaa !3
  %38 = icmp ne i32 %37, -1
  br i1 %38, label %39, label %72

39:                                               ; preds = %36
  call void @llvm.lifetime.start.p0(i64 4, ptr %10) #9
  %40 = load i32, ptr %7, align 4, !tbaa !3
  %41 = ashr i32 %40, 1
  store i32 %41, ptr %10, align 4, !tbaa !3
  call void @llvm.lifetime.start.p0(i64 4, ptr %11) #9
  %42 = load i32, ptr %7, align 4, !tbaa !3
  %43 = and i32 %42, 1
  store i32 %43, ptr %11, align 4, !tbaa !3
  call void @llvm.lifetime.start.p0(i64 8, ptr %12) #9
  %44 = load ptr, ptr %4, align 8, !tbaa !60
  %45 = getelementptr inbounds nuw %struct.b2World, ptr %44, i32 0, i32 10
  %46 = load i32, ptr %10, align 4, !tbaa !3
  %47 = call ptr @b2ContactArray_Get(ptr noundef %45, i32 noundef %46)
  store ptr %47, ptr %12, align 8, !tbaa !182
  %48 = load ptr, ptr %12, align 8, !tbaa !182
  %49 = getelementptr inbounds nuw %struct.b2Contact, ptr %48, i32 0, i32 3
  %50 = load i32, ptr %11, align 4, !tbaa !3
  %51 = sext i32 %50 to i64
  %52 = getelementptr inbounds [2 x %struct.b2ContactEdge], ptr %49, i64 0, i64 %51
  %53 = getelementptr inbounds nuw %struct.b2ContactEdge, ptr %52, i32 0, i32 2
  %54 = load i32, ptr %53, align 4, !tbaa !183
  store i32 %54, ptr %7, align 4, !tbaa !3
  call void @llvm.lifetime.start.p0(i64 4, ptr %13) #9
  %55 = load i32, ptr %11, align 4, !tbaa !3
  %56 = xor i32 %55, 1
  store i32 %56, ptr %13, align 4, !tbaa !3
  %57 = load ptr, ptr %12, align 8, !tbaa !182
  %58 = getelementptr inbounds nuw %struct.b2Contact, ptr %57, i32 0, i32 3
  %59 = load i32, ptr %13, align 4, !tbaa !3
  %60 = sext i32 %59 to i64
  %61 = getelementptr inbounds [2 x %struct.b2ContactEdge], ptr %58, i64 0, i64 %60
  %62 = getelementptr inbounds nuw %struct.b2ContactEdge, ptr %61, i32 0, i32 0
  %63 = load i32, ptr %62, align 4, !tbaa !185
  %64 = load i32, ptr %8, align 4, !tbaa !3
  %65 = icmp eq i32 %63, %64
  br i1 %65, label %66, label %71

66:                                               ; preds = %39
  %67 = load ptr, ptr %4, align 8, !tbaa !60
  %68 = load ptr, ptr %12, align 8, !tbaa !182
  %69 = load i8, ptr %9, align 1, !tbaa !133, !range !119, !noundef !120
  %70 = trunc i8 %69 to i1
  call void @b2DestroyContact(ptr noundef %67, ptr noundef %68, i1 noundef zeroext %70)
  br label %71

71:                                               ; preds = %66, %39
  call void @llvm.lifetime.end.p0(i64 4, ptr %13) #9
  call void @llvm.lifetime.end.p0(i64 8, ptr %12) #9
  call void @llvm.lifetime.end.p0(i64 4, ptr %11) #9
  call void @llvm.lifetime.end.p0(i64 4, ptr %10) #9
  br label %36, !llvm.loop !186

72:                                               ; preds = %36
  %73 = load ptr, ptr %4, align 8, !tbaa !60
  call void @b2ValidateSolverSets(ptr noundef %73)
  call void @llvm.lifetime.end.p0(i64 1, ptr %9) #9
  call void @llvm.lifetime.end.p0(i64 4, ptr %8) #9
  call void @llvm.lifetime.end.p0(i64 4, ptr %7) #9
  ret void
}

; Function Attrs: nounwind uwtable
define i64 @b2CreateWeldJoint(i32 %0, ptr noundef %1) #0 {
  %3 = alloca %struct.b2JointId, align 4
  %4 = alloca %struct.b2WorldId, align 2
  %5 = alloca ptr, align 8
  %6 = alloca ptr, align 8
  %7 = alloca i32, align 4
  %8 = alloca ptr, align 8
  %9 = alloca ptr, align 8
  %10 = alloca %struct.b2JointPair, align 8
  %11 = alloca ptr, align 8
  %12 = alloca %struct.b2WeldJoint, align 4
  store i32 %0, ptr %4, align 2
  store ptr %1, ptr %5, align 8, !tbaa !238
  call void @llvm.lifetime.start.p0(i64 8, ptr %6) #9
  %13 = load i32, ptr %4, align 2
  %14 = call ptr @b2GetWorldFromId(i32 %13)
  store ptr %14, ptr %6, align 8, !tbaa !60
  %15 = load ptr, ptr %6, align 8, !tbaa !60
  %16 = getelementptr inbounds nuw %struct.b2World, ptr %15, i32 0, i32 60
  %17 = load i8, ptr %16, align 1, !tbaa !76, !range !119, !noundef !120
  %18 = trunc i8 %17 to i1
  br i1 %18, label %19, label %23

19:                                               ; preds = %2
  %20 = getelementptr inbounds nuw %struct.b2JointId, ptr %3, i32 0, i32 0
  store i32 0, ptr %20, align 4, !tbaa !62
  %21 = getelementptr inbounds nuw %struct.b2JointId, ptr %3, i32 0, i32 1
  store i16 0, ptr %21, align 4, !tbaa !75
  %22 = getelementptr inbounds nuw %struct.b2JointId, ptr %3, i32 0, i32 2
  store i16 0, ptr %22, align 2, !tbaa !124
  store i32 1, ptr %7, align 4
  br label %124

23:                                               ; preds = %2
  call void @llvm.lifetime.start.p0(i64 8, ptr %8) #9
  %24 = load ptr, ptr %6, align 8, !tbaa !60
  %25 = load ptr, ptr %5, align 8, !tbaa !238
  %26 = getelementptr inbounds nuw %struct.b2WeldJointDef, ptr %25, i32 0, i32 0
  %27 = load i64, ptr %26, align 8
  %28 = call ptr @b2GetBodyFullId(ptr noundef %24, i64 %27)
  store ptr %28, ptr %8, align 8, !tbaa !125
  call void @llvm.lifetime.start.p0(i64 8, ptr %9) #9
  %29 = load ptr, ptr %6, align 8, !tbaa !60
  %30 = load ptr, ptr %5, align 8, !tbaa !238
  %31 = getelementptr inbounds nuw %struct.b2WeldJointDef, ptr %30, i32 0, i32 1
  %32 = load i64, ptr %31, align 8
  %33 = call ptr @b2GetBodyFullId(ptr noundef %29, i64 %32)
  store ptr %33, ptr %9, align 8, !tbaa !125
  call void @llvm.lifetime.start.p0(i64 16, ptr %10) #9
  %34 = load ptr, ptr %6, align 8, !tbaa !60
  %35 = load ptr, ptr %8, align 8, !tbaa !125
  %36 = load ptr, ptr %9, align 8, !tbaa !125
  %37 = load ptr, ptr %5, align 8, !tbaa !238
  %38 = getelementptr inbounds nuw %struct.b2WeldJointDef, ptr %37, i32 0, i32 10
  %39 = load ptr, ptr %38, align 8, !tbaa !240
  %40 = load ptr, ptr %5, align 8, !tbaa !238
  %41 = getelementptr inbounds nuw %struct.b2WeldJointDef, ptr %40, i32 0, i32 9
  %42 = load i8, ptr %41, align 4, !tbaa !241, !range !119, !noundef !120
  %43 = trunc i8 %42 to i1
  %44 = call { ptr, ptr } @b2CreateJoint(ptr noundef %34, ptr noundef %35, ptr noundef %36, ptr noundef %39, float noundef 1.000000e+00, i32 noundef 6, i1 noundef zeroext %43)
  %45 = getelementptr inbounds nuw { ptr, ptr }, ptr %10, i32 0, i32 0
  %46 = extractvalue { ptr, ptr } %44, 0
  store ptr %46, ptr %45, align 8
  %47 = getelementptr inbounds nuw { ptr, ptr }, ptr %10, i32 0, i32 1
  %48 = extractvalue { ptr, ptr } %44, 1
  store ptr %48, ptr %47, align 8
  call void @llvm.lifetime.start.p0(i64 8, ptr %11) #9
  %49 = getelementptr inbounds nuw %struct.b2JointPair, ptr %10, i32 0, i32 1
  %50 = load ptr, ptr %49, align 8, !tbaa !128
  store ptr %50, ptr %11, align 8, !tbaa !121
  %51 = load ptr, ptr %11, align 8, !tbaa !121
  %52 = getelementptr inbounds nuw %struct.b2JointSim, ptr %51, i32 0, i32 3
  store i32 6, ptr %52, align 4, !tbaa !130
  %53 = load ptr, ptr %11, align 8, !tbaa !121
  %54 = getelementptr inbounds nuw %struct.b2JointSim, ptr %53, i32 0, i32 4
  %55 = load ptr, ptr %5, align 8, !tbaa !238
  %56 = getelementptr inbounds nuw %struct.b2WeldJointDef, ptr %55, i32 0, i32 2
  call void @llvm.memcpy.p0.p0.i64(ptr align 4 %54, ptr align 8 %56, i64 8, i1 false), !tbaa.struct !43
  %57 = load ptr, ptr %11, align 8, !tbaa !121
  %58 = getelementptr inbounds nuw %struct.b2JointSim, ptr %57, i32 0, i32 5
  %59 = load ptr, ptr %5, align 8, !tbaa !238
  %60 = getelementptr inbounds nuw %struct.b2WeldJointDef, ptr %59, i32 0, i32 3
  call void @llvm.memcpy.p0.p0.i64(ptr align 4 %58, ptr align 8 %60, i64 8, i1 false), !tbaa.struct !43
  call void @llvm.lifetime.start.p0(i64 96, ptr %12) #9
  call void @llvm.memset.p0.i64(ptr align 4 %12, i8 0, i64 96, i1 false)
  %61 = load ptr, ptr %11, align 8, !tbaa !121
  %62 = getelementptr inbounds nuw %struct.b2JointSim, ptr %61, i32 0, i32 10
  call void @llvm.memcpy.p0.p0.i64(ptr align 4 %62, ptr align 4 %12, i64 96, i1 false), !tbaa.struct !242
  %63 = load ptr, ptr %5, align 8, !tbaa !238
  %64 = getelementptr inbounds nuw %struct.b2WeldJointDef, ptr %63, i32 0, i32 4
  %65 = load float, ptr %64, align 8, !tbaa !243
  %66 = load ptr, ptr %11, align 8, !tbaa !121
  %67 = getelementptr inbounds nuw %struct.b2JointSim, ptr %66, i32 0, i32 10
  %68 = getelementptr inbounds nuw %struct.b2WeldJoint, ptr %67, i32 0, i32 0
  store float %65, ptr %68, align 4, !tbaa !134
  %69 = load ptr, ptr %5, align 8, !tbaa !238
  %70 = getelementptr inbounds nuw %struct.b2WeldJointDef, ptr %69, i32 0, i32 5
  %71 = load float, ptr %70, align 4, !tbaa !244
  %72 = load ptr, ptr %11, align 8, !tbaa !121
  %73 = getelementptr inbounds nuw %struct.b2JointSim, ptr %72, i32 0, i32 10
  %74 = getelementptr inbounds nuw %struct.b2WeldJoint, ptr %73, i32 0, i32 1
  store float %71, ptr %74, align 4, !tbaa !134
  %75 = load ptr, ptr %5, align 8, !tbaa !238
  %76 = getelementptr inbounds nuw %struct.b2WeldJointDef, ptr %75, i32 0, i32 7
  %77 = load float, ptr %76, align 4, !tbaa !245
  %78 = load ptr, ptr %11, align 8, !tbaa !121
  %79 = getelementptr inbounds nuw %struct.b2JointSim, ptr %78, i32 0, i32 10
  %80 = getelementptr inbounds nuw %struct.b2WeldJoint, ptr %79, i32 0, i32 2
  store float %77, ptr %80, align 4, !tbaa !134
  %81 = load ptr, ptr %5, align 8, !tbaa !238
  %82 = getelementptr inbounds nuw %struct.b2WeldJointDef, ptr %81, i32 0, i32 6
  %83 = load float, ptr %82, align 8, !tbaa !246
  %84 = load ptr, ptr %11, align 8, !tbaa !121
  %85 = getelementptr inbounds nuw %struct.b2JointSim, ptr %84, i32 0, i32 10
  %86 = getelementptr inbounds nuw %struct.b2WeldJoint, ptr %85, i32 0, i32 3
  store float %83, ptr %86, align 4, !tbaa !134
  %87 = load ptr, ptr %5, align 8, !tbaa !238
  %88 = getelementptr inbounds nuw %struct.b2WeldJointDef, ptr %87, i32 0, i32 8
  %89 = load float, ptr %88, align 8, !tbaa !247
  %90 = load ptr, ptr %11, align 8, !tbaa !121
  %91 = getelementptr inbounds nuw %struct.b2JointSim, ptr %90, i32 0, i32 10
  %92 = getelementptr inbounds nuw %struct.b2WeldJoint, ptr %91, i32 0, i32 4
  store float %89, ptr %92, align 4, !tbaa !134
  %93 = load ptr, ptr %11, align 8, !tbaa !121
  %94 = getelementptr inbounds nuw %struct.b2JointSim, ptr %93, i32 0, i32 10
  %95 = getelementptr inbounds nuw %struct.b2WeldJoint, ptr %94, i32 0, i32 7
  call void @llvm.memcpy.p0.p0.i64(ptr align 4 %95, ptr align 4 @b2Vec2_zero, i64 8, i1 false), !tbaa.struct !43
  %96 = load ptr, ptr %11, align 8, !tbaa !121
  %97 = getelementptr inbounds nuw %struct.b2JointSim, ptr %96, i32 0, i32 10
  %98 = getelementptr inbounds nuw %struct.b2WeldJoint, ptr %97, i32 0, i32 8
  store float 0.000000e+00, ptr %98, align 4, !tbaa !134
  %99 = load ptr, ptr %5, align 8, !tbaa !238
  %100 = getelementptr inbounds nuw %struct.b2WeldJointDef, ptr %99, i32 0, i32 9
  %101 = load i8, ptr %100, align 4, !tbaa !241, !range !119, !noundef !120
  %102 = trunc i8 %101 to i1
  %103 = zext i1 %102 to i32
  %104 = icmp eq i32 %103, 0
  br i1 %104, label %105, label %109

105:                                              ; preds = %23
  %106 = load ptr, ptr %6, align 8, !tbaa !60
  %107 = load ptr, ptr %8, align 8, !tbaa !125
  %108 = load ptr, ptr %9, align 8, !tbaa !125
  call void @b2DestroyContactsBetweenBodies(ptr noundef %106, ptr noundef %107, ptr noundef %108)
  br label %109

109:                                              ; preds = %105, %23
  %110 = getelementptr inbounds nuw %struct.b2JointId, ptr %3, i32 0, i32 0
  %111 = load ptr, ptr %11, align 8, !tbaa !121
  %112 = getelementptr inbounds nuw %struct.b2JointSim, ptr %111, i32 0, i32 0
  %113 = load i32, ptr %112, align 4, !tbaa !143
  %114 = add nsw i32 %113, 1
  store i32 %114, ptr %110, align 4, !tbaa !62
  %115 = getelementptr inbounds nuw %struct.b2JointId, ptr %3, i32 0, i32 1
  %116 = load ptr, ptr %6, align 8, !tbaa !60
  %117 = getelementptr inbounds nuw %struct.b2World, ptr %116, i32 0, i32 58
  %118 = load i16, ptr %117, align 4, !tbaa !144
  store i16 %118, ptr %115, align 4, !tbaa !75
  %119 = getelementptr inbounds nuw %struct.b2JointId, ptr %3, i32 0, i32 2
  %120 = getelementptr inbounds nuw %struct.b2JointPair, ptr %10, i32 0, i32 0
  %121 = load ptr, ptr %120, align 8, !tbaa !145
  %122 = getelementptr inbounds nuw %struct.b2Joint, ptr %121, i32 0, i32 11
  %123 = load i16, ptr %122, align 4, !tbaa !146
  store i16 %123, ptr %119, align 2, !tbaa !124
  store i32 1, ptr %7, align 4
  call void @llvm.lifetime.end.p0(i64 96, ptr %12) #9
  call void @llvm.lifetime.end.p0(i64 8, ptr %11) #9
  call void @llvm.lifetime.end.p0(i64 16, ptr %10) #9
  call void @llvm.lifetime.end.p0(i64 8, ptr %9) #9
  call void @llvm.lifetime.end.p0(i64 8, ptr %8) #9
  br label %124

124:                                              ; preds = %109, %19
  call void @llvm.lifetime.end.p0(i64 8, ptr %6) #9
  %125 = load i64, ptr %3, align 4
  ret i64 %125
}