; Function Attrs: nounwind uwtable
define i64 @b2CreateWeldJoint(i32 %0, ptr noundef readonly captures(none) %1) local_unnamed_addr #0 {
  %3 = tail call ptr @b2GetWorldFromId(i32 %0) #10
  %4 = getelementptr inbounds nuw i8, ptr %3, i64 1783
  %5 = load i8, ptr %4, align 1, !tbaa !60, !range !103, !noundef !104
  %6 = trunc nuw i8 %5 to i1
  br i1 %6, label %85, label %7

7:                                                ; preds = %2
  %8 = load i64, ptr %1, align 8
  %9 = tail call ptr @b2GetBodyFullId(ptr noundef nonnull %3, i64 %8) #10
  %10 = getelementptr inbounds nuw i8, ptr %1, i64 8
  %11 = load i64, ptr %10, align 8
  %12 = tail call ptr @b2GetBodyFullId(ptr noundef nonnull %3, i64 %11) #10
  %13 = getelementptr inbounds nuw i8, ptr %1, i64 56
  %14 = load ptr, ptr %13, align 8, !tbaa !192
  %15 = getelementptr inbounds nuw i8, ptr %1, i64 52
  %16 = load i8, ptr %15, align 4, !tbaa !193, !range !103, !noundef !104
  %17 = trunc nuw i8 %16 to i1
  %18 = tail call fastcc { ptr, ptr } @b2CreateJoint(ptr noundef nonnull %3, ptr noundef %9, ptr noundef %12, ptr noundef %14, float noundef 1.000000e+00, i32 noundef 6, i1 noundef zeroext %17)
  %19 = extractvalue { ptr, ptr } %18, 0
  %20 = extractvalue { ptr, ptr } %18, 1
  %21 = getelementptr inbounds nuw i8, ptr %20, i64 12
  store i32 6, ptr %21, align 4, !tbaa !107
  %22 = getelementptr inbounds nuw i8, ptr %20, i64 16
  %23 = getelementptr inbounds nuw i8, ptr %1, i64 16
  %24 = load i64, ptr %23, align 8
  store i64 %24, ptr %22, align 4
  %25 = getelementptr inbounds nuw i8, ptr %20, i64 24
  %26 = getelementptr inbounds nuw i8, ptr %1, i64 24
  %27 = load i64, ptr %26, align 8
  store i64 %27, ptr %25, align 4
  %28 = getelementptr inbounds nuw i8, ptr %20, i64 48
  tail call void @llvm.memset.p0.i64(ptr noundef nonnull align 4 dereferenceable(96) %28, i8 0, i64 96, i1 false)
  %29 = getelementptr inbounds nuw i8, ptr %1, i64 32
  %30 = load float, ptr %29, align 8, !tbaa !194
  store float %30, ptr %28, align 4, !tbaa !109
  %31 = getelementptr inbounds nuw i8, ptr %1, i64 36
  %32 = load float, ptr %31, align 4, !tbaa !195
  %33 = getelementptr inbounds nuw i8, ptr %20, i64 52
  store float %32, ptr %33, align 4, !tbaa !109
  %34 = getelementptr inbounds nuw i8, ptr %1, i64 44
  %35 = load float, ptr %34, align 4, !tbaa !196
  %36 = getelementptr inbounds nuw i8, ptr %20, i64 56
  store float %35, ptr %36, align 4, !tbaa !109
  %37 = getelementptr inbounds nuw i8, ptr %1, i64 40
  %38 = load float, ptr %37, align 8, !tbaa !197
  %39 = getelementptr inbounds nuw i8, ptr %20, i64 60
  store float %38, ptr %39, align 4, !tbaa !109
  %40 = getelementptr inbounds nuw i8, ptr %1, i64 48
  %41 = load float, ptr %40, align 8, !tbaa !198
  %42 = getelementptr inbounds nuw i8, ptr %20, i64 64
  store float %41, ptr %42, align 4, !tbaa !109
  %43 = getelementptr inbounds nuw i8, ptr %20, i64 92
  store i64 0, ptr %43, align 4
  %44 = getelementptr inbounds nuw i8, ptr %20, i64 100
  store float 0.000000e+00, ptr %44, align 4, !tbaa !109
  %45 = load i8, ptr %15, align 4, !tbaa !193, !range !103, !noundef !104
  %46 = icmp eq i8 %45, 0
  br i1 %46, label %47, label %71

47:                                               ; preds = %7
  %48 = getelementptr inbounds nuw i8, ptr %9, i64 52
  %49 = load i32, ptr %48, align 4, !tbaa !118
  %50 = getelementptr inbounds nuw i8, ptr %12, i64 52
  %51 = load i32, ptr %50, align 4, !tbaa !118
  %52 = icmp slt i32 %49, %51
  %..i = select i1 %52, ptr %12, ptr %9
  %.23.i = select i1 %52, ptr %9, ptr %12
  %.0.in.i = getelementptr inbounds nuw i8, ptr %.23.i, i64 48
  %.0.i = load i32, ptr %.0.in.i, align 8, !tbaa !120
  %.020.in.i = getelementptr inbounds nuw i8, ptr %..i, i64 108
  %.020.i = load i32, ptr %.020.in.i, align 4, !tbaa !121
  %.not24.i = icmp eq i32 %.0.i, -1
  br i1 %.not24.i, label %b2DestroyContactsBetweenBodies.exit, label %.lr.ph.i

.lr.ph.i:                                         ; preds = %47
  %53 = getelementptr inbounds nuw i8, ptr %3, i64 1152
  br label %54

54:                                               ; preds = %70, %.lr.ph.i
  %.125.i = phi i32 [ %.0.i, %.lr.ph.i ], [ %63, %70 ]
  %55 = ashr i32 %.125.i, 1
  %56 = and i32 %.125.i, 1
  %.val.i = load ptr, ptr %53, align 8, !tbaa !122
  %57 = sext i32 %55 to i64
  %58 = getelementptr inbounds %struct.b2Contact, ptr %.val.i, i64 %57
  %59 = getelementptr inbounds nuw i8, ptr %58, i64 12
  %narrow.i = mul nuw nsw i32 %56, 12
  %60 = zext nneg i32 %narrow.i to i64
  %61 = getelementptr inbounds nuw i8, ptr %59, i64 %60
  %62 = getelementptr inbounds nuw i8, ptr %61, i64 8
  %63 = load i32, ptr %62, align 4, !tbaa !123
  %64 = xor i32 %56, 1
  %65 = zext nneg i32 %64 to i64
  %66 = getelementptr inbounds nuw [2 x %struct.b2ContactEdge], ptr %59, i64 0, i64 %65
  %67 = load i32, ptr %66, align 4, !tbaa !125
  %68 = icmp eq i32 %67, %.020.i
  br i1 %68, label %69, label %70

69:                                               ; preds = %54
  tail call void @b2DestroyContact(ptr noundef nonnull %3, ptr noundef nonnull %58, i1 noundef zeroext false) #10
  br label %70

70:                                               ; preds = %69, %54
  %.not.i = icmp eq i32 %63, -1
  br i1 %.not.i, label %b2DestroyContactsBetweenBodies.exit, label %54, !llvm.loop !126

b2DestroyContactsBetweenBodies.exit:              ; preds = %70, %47
  tail call void @b2ValidateSolverSets(ptr noundef nonnull %3) #10
  br label %71

71:                                               ; preds = %b2DestroyContactsBetweenBodies.exit, %7
  %72 = load i32, ptr %20, align 4, !tbaa !128
  %73 = add nsw i32 %72, 1
  %74 = getelementptr inbounds nuw i8, ptr %3, i64 1780
  %75 = load i16, ptr %74, align 4, !tbaa !129
  %76 = getelementptr inbounds nuw i8, ptr %19, i64 68
  %77 = load i16, ptr %76, align 4, !tbaa !130
  %78 = zext i16 %77 to i64
  %79 = shl nuw i64 %78, 48
  %80 = zext i16 %75 to i64
  %81 = shl nuw nsw i64 %80, 32
  %82 = zext i32 %73 to i64
  %83 = or disjoint i64 %81, %82
  %84 = or disjoint i64 %83, %79
  br label %85

85:                                               ; preds = %2, %71
  %.sroa.035.0.insert.insert = phi i64 [ %84, %71 ], [ 0, %2 ]
  ret i64 %.sroa.035.0.insert.insert
}